target datalayout = "e-m:e-p270:32:32-p271:32:32-p272:64:64-i64:64-i128:128-f80:128-n8:16:32:64-S128"
target triple = "x86_64-pc-linux-gnu"

%struct.TupleTableSlotOps = type { i64, ptr, ptr, ptr, ptr, ptr, ptr, ptr, ptr, ptr, ptr, ptr, ptr }
%struct.ResultRelInfo = type { i32, i32, ptr, i32, ptr, ptr, i16, ptr, i8, ptr, ptr, ptr, i8, i8, ptr, ptr, ptr, ptr, ptr, ptr, ptr, ptr, ptr, ptr, i8, i32, i32, i32, ptr, ptr, ptr, ptr, ptr, ptr, ptr, i32, i32, ptr, ptr, ptr, ptr, [3 x ptr], ptr, ptr, ptr, i8, ptr, i8, ptr, ptr, ptr, ptr }
%struct.RelationData = type { %struct.RelFileLocator, ptr, i32, i32, i8, i8, i8, i8, i8, i32, i32, i32, i32, ptr, ptr, i32, %struct.LockInfoData, ptr, ptr, ptr, ptr, ptr, i8, ptr, ptr, ptr, ptr, ptr, ptr, i32, ptr, i8, ptr, ptr, i32, i8, i32, ptr, i8, ptr, ptr, ptr, ptr, ptr, ptr, ptr, i32, ptr, ptr, ptr, ptr, ptr, ptr, ptr, ptr, ptr, ptr, ptr, ptr, ptr, ptr, ptr, ptr, ptr, ptr, ptr, i32, i8, ptr }
%struct.RelFileLocator = type { i32, i32, i32 }
%struct.LockInfoData = type { %struct.LockRelId }
%struct.LockRelId = type { i32, i32 }
%struct.EState = type { i32, i32, ptr, ptr, ptr, i32, ptr, ptr, ptr, ptr, ptr, ptr, ptr, ptr, ptr, ptr, i32, ptr, ptr, ptr, ptr, ptr, ptr, ptr, ptr, ptr, ptr, i64, i64, i32, i32, i8, ptr, ptr, ptr, ptr, ptr, i8, i32, i32, ptr, i32, ptr, ptr, ptr, ptr }
%struct.TupleTableSlot = type { i32, i16, i16, ptr, ptr, ptr, ptr, ptr, %struct.ItemPointerData, i32 }
%struct.ItemPointerData = type { %struct.BlockIdData, i16 }
%struct.BlockIdData = type { i16, i16 }
%struct.ModifyTableState = type { %struct.PlanState, i32, i8, i8, i32, ptr, ptr, %struct.EPQState, i8, i32, i32, i32, ptr, ptr, ptr, ptr, ptr, i32, ptr, ptr, double, double, double, ptr, ptr, ptr }
%struct.PlanState = type { i32, ptr, ptr, ptr, ptr, ptr, ptr, ptr, ptr, ptr, ptr, ptr, ptr, ptr, ptr, ptr, ptr, ptr, i8, ptr, ptr, ptr, ptr, ptr, i8, i8, i8, i8, i8, i8, i8, i8 }
%struct.EPQState = type { ptr, i32, ptr, ptr, ptr, ptr, ptr, ptr, ptr, ptr, ptr, ptr, ptr }
%struct.FdwRoutine = type { i32, ptr, ptr, ptr, ptr, ptr, ptr, ptr, ptr, ptr, ptr, ptr, ptr, ptr, ptr, ptr, ptr, ptr, ptr, ptr, ptr, ptr, ptr, ptr, ptr, ptr, ptr, ptr, ptr, ptr, ptr, ptr, ptr, ptr, ptr, ptr, ptr, ptr, ptr, ptr, ptr, ptr, ptr, ptr, ptr, ptr }

; Function Attrs: inlinehint nounwind uwtable
define internal ptr @ExecClearTuple(ptr noundef %0) #3 {
  %2 = alloca ptr, align 8
  store ptr %0, ptr %2, align 8
  %3 = load ptr, ptr %2, align 8
  %4 = getelementptr inbounds nuw %struct.TupleTableSlot, ptr %3, i32 0, i32 3
  %5 = load ptr, ptr %4, align 8
  %6 = getelementptr inbounds nuw %struct.TupleTableSlotOps, ptr %5, i32 0, i32 3
  %7 = load ptr, ptr %6, align 8
  %8 = load ptr, ptr %2, align 8
  call void %7(ptr noundef %8)
  %9 = load ptr, ptr %2, align 8
  ret ptr %9
}

; Function Attrs: nounwind uwtable
define internal void @ExecBatchInsert(ptr noundef %0, ptr noundef %1, ptr noundef %2, ptr noundef %3, i32 noundef %4, ptr noundef %5, i1 noundef zeroext %6) #0 {
  %8 = alloca ptr, align 8
  %9 = alloca ptr, align 8
  %10 = alloca ptr, align 8
  %11 = alloca ptr, align 8
  %12 = alloca i32, align 4
  %13 = alloca ptr, align 8
  %14 = alloca i8, align 1
  %15 = alloca i32, align 4
  %16 = alloca i32, align 4
  %17 = alloca ptr, align 8
  %18 = alloca ptr, align 8
  store ptr %0, ptr %8, align 8
  store ptr %1, ptr %9, align 8
  store ptr %2, ptr %10, align 8
  store ptr %3, ptr %11, align 8
  store i32 %4, ptr %12, align 4
  store ptr %5, ptr %13, align 8
  %19 = zext i1 %6 to i8
  store i8 %19, ptr %14, align 1
  call void @llvm.lifetime.start.p0(i64 4, ptr %15) #8
  call void @llvm.lifetime.start.p0(i64 4, ptr %16) #8
  %20 = load i32, ptr %12, align 4
  store i32 %20, ptr %16, align 4
  call void @llvm.lifetime.start.p0(i64 8, ptr %17) #8
  store ptr null, ptr %17, align 8
  call void @llvm.lifetime.start.p0(i64 8, ptr %18) #8
  %21 = load ptr, ptr %9, align 8
  %22 = getelementptr inbounds nuw %struct.ResultRelInfo, ptr %21, i32 0, i32 22
  %23 = load ptr, ptr %22, align 8
  %24 = getelementptr inbounds nuw %struct.FdwRoutine, ptr %23, i32 0, i32 14
  %25 = load ptr, ptr %24, align 8
  %26 = load ptr, ptr %13, align 8
  %27 = load ptr, ptr %9, align 8
  %28 = load ptr, ptr %10, align 8
  %29 = load ptr, ptr %11, align 8
  %30 = call ptr %25(ptr noundef %26, ptr noundef %27, ptr noundef %28, ptr noundef %29, ptr noundef %16)
  store ptr %30, ptr %18, align 8
  store i32 0, ptr %15, align 4
  br label %31

31:                                               ; preds = %63, %7
  %32 = load i32, ptr %15, align 4
  %33 = load i32, ptr %16, align 4
  %34 = icmp slt i32 %32, %33
  br i1 %34, label %35, label %66

35:                                               ; preds = %31
  %36 = load ptr, ptr %18, align 8
  %37 = load i32, ptr %15, align 4
  %38 = sext i32 %37 to i64
  %39 = getelementptr inbounds ptr, ptr %36, i64 %38
  %40 = load ptr, ptr %39, align 8
  store ptr %40, ptr %17, align 8
  %41 = load ptr, ptr %9, align 8
  %42 = getelementptr inbounds nuw %struct.ResultRelInfo, ptr %41, i32 0, i32 2
  %43 = load ptr, ptr %42, align 8
  %44 = getelementptr inbounds nuw %struct.RelationData, ptr %43, i32 0, i32 15
  %45 = load i32, ptr %44, align 8
  %46 = load ptr, ptr %17, align 8
  %47 = getelementptr inbounds nuw %struct.TupleTableSlot, ptr %46, i32 0, i32 9
  store i32 %45, ptr %47, align 8
  %48 = load ptr, ptr %13, align 8
  %49 = load ptr, ptr %9, align 8
  %50 = load ptr, ptr %17, align 8
  %51 = load ptr, ptr %8, align 8
  %52 = getelementptr inbounds nuw %struct.ModifyTableState, ptr %51, i32 0, i32 15
  %53 = load ptr, ptr %52, align 8
  call void @ExecARInsertTriggers(ptr noundef %48, ptr noundef %49, ptr noundef %50, ptr noundef null, ptr noundef %53)
  %54 = load ptr, ptr %9, align 8
  %55 = getelementptr inbounds nuw %struct.ResultRelInfo, ptr %54, i32 0, i32 30
  %56 = load ptr, ptr %55, align 8
  %57 = icmp ne ptr %56, null
  br i1 %57, label %58, label %62

58:                                               ; preds = %35
  %59 = load ptr, ptr %9, align 8
  %60 = load ptr, ptr %17, align 8
  %61 = load ptr, ptr %13, align 8
  call void @ExecWithCheckOptions(i32 noundef 0, ptr noundef %59, ptr noundef %60, ptr noundef %61)
  br label %62

62:                                               ; preds = %58, %35
  br label %63

63:                                               ; preds = %62
  %64 = load i32, ptr %15, align 4
  %65 = add i32 %64, 1
  store i32 %65, ptr %15, align 4
  br label %31, !llvm.loop !29

66:                                               ; preds = %31
  %67 = load i8, ptr %14, align 1, !range !4, !noundef !5
  %68 = trunc i8 %67 to i1
  br i1 %68, label %69, label %79

69:                                               ; preds = %66
  %70 = load i32, ptr %16, align 4
  %71 = icmp sgt i32 %70, 0
  br i1 %71, label %72, label %79

72:                                               ; preds = %69
  %73 = load i32, ptr %16, align 4
  %74 = sext i32 %73 to i64
  %75 = load ptr, ptr %13, align 8
  %76 = getelementptr inbounds nuw %struct.EState, ptr %75, i32 0, i32 27
  %77 = load i64, ptr %76, align 8
  %78 = add i64 %77, %74
  store i64 %78, ptr %76, align 8
  br label %79

79:                                               ; preds = %72, %69, %66
  store i32 0, ptr %15, align 4
  br label %80

80:                                               ; preds = %97, %79
  %81 = load i32, ptr %15, align 4
  %82 = load i32, ptr %12, align 4
  %83 = icmp slt i32 %81, %82
  br i1 %83, label %84, label %100

84:                                               ; preds = %80
  %85 = load ptr, ptr %10, align 8
  %86 = load i32, ptr %15, align 4
  %87 = sext i32 %86 to i64
  %88 = getelementptr inbounds ptr, ptr %85, i64 %87
  %89 = load ptr, ptr %88, align 8
  %90 = call ptr @ExecClearTuple(ptr noundef %89)
  %91 = load ptr, ptr %11, align 8
  %92 = load i32, ptr %15, align 4
  %93 = sext i32 %92 to i64
  %94 = getelementptr inbounds ptr, ptr %91, i64 %93
  %95 = load ptr, ptr %94, align 8
  %96 = call ptr @ExecClearTuple(ptr noundef %95)
  br label %97

97:                                               ; preds = %84
  %98 = load i32, ptr %15, align 4
  %99 = add i32 %98, 1
  store i32 %99, ptr %15, align 4
  br label %80, !llvm.loop !30

100:                                              ; preds = %80
  %101 = load ptr, ptr %9, align 8
  %102 = getelementptr inbounds nuw %struct.ResultRelInfo, ptr %101, i32 0, i32 25
  store i32 0, ptr %102, align 4
  call void @llvm.lifetime.end.p0(i64 8, ptr %18) #8
  call void @llvm.lifetime.end.p0(i64 8, ptr %17) #8
  call void @llvm.lifetime.end.p0(i64 4, ptr %16) #8
  call void @llvm.lifetime.end.p0(i64 4, ptr %15) #8
  ret void
}