; Function Attrs: nounwind uwtable
define internal fastcc void @ExecBatchInsert(ptr noundef readonly captures(none) %0, ptr noundef %1, ptr noundef %2, ptr noundef %3, i32 noundef %4, ptr noundef %5, i1 noundef zeroext %6) unnamed_addr #0 {
  %8 = alloca i32, align 4
  call void @llvm.lifetime.start.p0(i64 4, ptr nonnull %8) #9
  store i32 %4, ptr %8, align 4
  %9 = getelementptr inbounds nuw i8, ptr %1, i64 160
  %10 = load ptr, ptr %9, align 8
  %11 = getelementptr inbounds nuw i8, ptr %10, i64 112
  %12 = load ptr, ptr %11, align 8
  %13 = call ptr %12(ptr noundef %5, ptr noundef %1, ptr noundef %2, ptr noundef %3, ptr noundef nonnull %8) #9
  %14 = load i32, ptr %8, align 4
  %15 = icmp sgt i32 %14, 0
  br i1 %15, label %.lr.ph, label %._crit_edge.thread

.lr.ph:                                           ; preds = %7
  %16 = getelementptr inbounds nuw i8, ptr %1, i64 8
  %17 = getelementptr inbounds nuw i8, ptr %0, i64 376
  %18 = getelementptr inbounds nuw i8, ptr %1, i64 208
  br label %19

19:                                               ; preds = %.lr.ph, %29
  %indvars.iv = phi i64 [ 0, %.lr.ph ], [ %indvars.iv.next, %29 ]
  %20 = getelementptr inbounds nuw ptr, ptr %13, i64 %indvars.iv
  %21 = load ptr, ptr %20, align 8
  %22 = load ptr, ptr %16, align 8
  %23 = getelementptr inbounds nuw i8, ptr %22, i64 72
  %24 = load i32, ptr %23, align 8
  %25 = getelementptr inbounds nuw i8, ptr %21, i64 56
  store i32 %24, ptr %25, align 8
  %26 = load ptr, ptr %17, align 8
  call void @ExecARInsertTriggers(ptr noundef %5, ptr noundef nonnull %1, ptr noundef %21, ptr noundef null, ptr noundef %26) #9
  %27 = load ptr, ptr %18, align 8
  %.not = icmp eq ptr %27, null
  br i1 %.not, label %29, label %28

28:                                               ; preds = %19
  call void @ExecWithCheckOptions(i32 noundef 0, ptr noundef nonnull %1, ptr noundef nonnull %21, ptr noundef %5) #9
  br label %29

29:                                               ; preds = %19, %28
  %indvars.iv.next = add nuw nsw i64 %indvars.iv, 1
  %30 = load i32, ptr %8, align 4
  %31 = sext i32 %30 to i64
  %32 = icmp slt i64 %indvars.iv.next, %31
  br i1 %32, label %19, label %._crit_edge, !llvm.loop !19

._crit_edge:                                      ; preds = %29
  %33 = icmp sgt i32 %30, 0
  %or.cond = and i1 %6, %33
  br i1 %or.cond, label %34, label %._crit_edge.thread

34:                                               ; preds = %._crit_edge
  %35 = zext nneg i32 %30 to i64
  %36 = getelementptr inbounds nuw i8, ptr %5, i64 208
  %37 = load i64, ptr %36, align 8
  %38 = add i64 %37, %35
  store i64 %38, ptr %36, align 8
  br label %._crit_edge.thread

._crit_edge.thread:                               ; preds = %7, %34, %._crit_edge
  %39 = icmp sgt i32 %4, 0
  br i1 %39, label %.lr.ph34.preheader, label %._crit_edge35

.lr.ph34.preheader:                               ; preds = %._crit_edge.thread
  %wide.trip.count = zext nneg i32 %4 to i64
  br label %.lr.ph34

.lr.ph34:                                         ; preds = %.lr.ph34.preheader, %.lr.ph34
  %indvars.iv38 = phi i64 [ 0, %.lr.ph34.preheader ], [ %indvars.iv.next39, %.lr.ph34 ]
  %40 = getelementptr inbounds nuw ptr, ptr %2, i64 %indvars.iv38
  %41 = load ptr, ptr %40, align 8
  %42 = getelementptr inbounds nuw i8, ptr %41, i64 8
  %43 = load ptr, ptr %42, align 8
  %44 = getelementptr inbounds nuw i8, ptr %43, i64 24
  %45 = load ptr, ptr %44, align 8
  call void %45(ptr noundef %41) #9
  %46 = getelementptr inbounds nuw ptr, ptr %3, i64 %indvars.iv38
  %47 = load ptr, ptr %46, align 8
  %48 = getelementptr inbounds nuw i8, ptr %47, i64 8
  %49 = load ptr, ptr %48, align 8
  %50 = getelementptr inbounds nuw i8, ptr %49, i64 24
  %51 = load ptr, ptr %50, align 8
  call void %51(ptr noundef %47) #9
  %indvars.iv.next39 = add nuw nsw i64 %indvars.iv38, 1
  %exitcond.not = icmp eq i64 %indvars.iv.next39, %wide.trip.count
  br i1 %exitcond.not, label %._crit_edge35, label %.lr.ph34, !llvm.loop !20

._crit_edge35:                                    ; preds = %.lr.ph34, %._crit_edge.thread
  %52 = getelementptr inbounds nuw i8, ptr %1, i64 180
  store i32 0, ptr %52, align 4
  call void @llvm.lifetime.end.p0(i64 4, ptr nonnull %8) #9
  ret void
}